target datalayout = "e-m:e-p270:32:32-p271:32:32-p272:64:64-i64:64-i128:128-f80:128-n8:16:32:64-S128"
target triple = "x86_64-pc-linux-gnu"

%struct.Abc_Ntk_t_ = type { i32, i32, ptr, ptr, ptr, ptr, ptr, ptr, ptr, ptr, ptr, ptr, ptr, [11 x i32], i32, i32, i32, i32, ptr, i32, ptr, ptr, i32, i32, i32, double, i32, %struct.Vec_Int_t_, ptr, ptr, ptr, ptr, ptr, float, i32, ptr, ptr, ptr, ptr, ptr, ptr, ptr, ptr, ptr, ptr, ptr, ptr, ptr, ptr, ptr, ptr, ptr, ptr, ptr, ptr, ptr, ptr }
%struct.Vec_Int_t_ = type { i32, i32, ptr }
%struct.Abc_Obj_t_ = type { ptr, ptr, i32, i32, %struct.Vec_Int_t_, %struct.Vec_Int_t_, %union.anon, %union.anon.0 }
%union.anon = type { ptr }
%union.anon.0 = type { ptr }
%struct.Vec_Ptr_t_ = type { i32, i32, ptr }

@.str.17 = private unnamed_addr constant [6 x i8] c"miter\00", align 1
@.str.18 = private unnamed_addr constant [45 x i8] c"Abc_NtkOrPos: The network check has failed.\0A\00", align 1

; Function Attrs: inlinehint nounwind uwtable
define internal ptr @Abc_ObjNotCond(ptr noundef %0, i32 noundef %1) #3 {
  %3 = alloca ptr, align 8
  %4 = alloca i32, align 4
  store ptr %0, ptr %3, align 8, !tbaa !28
  store i32 %1, ptr %4, align 4, !tbaa !8
  %5 = load ptr, ptr %3, align 8, !tbaa !28
  %6 = ptrtoint ptr %5 to i64
  %7 = load i32, ptr %4, align 4, !tbaa !8
  %8 = icmp ne i32 %7, 0
  %9 = zext i1 %8 to i32
  %10 = sext i32 %9 to i64
  %11 = xor i64 %6, %10
  %12 = inttoptr i64 %11 to ptr
  ret ptr %12
}

; Function Attrs: inlinehint nounwind uwtable
define internal i32 @Abc_ObjFaninC0(ptr noundef %0) #3 {
  %2 = alloca ptr, align 8
  store ptr %0, ptr %2, align 8, !tbaa !28
  %3 = load ptr, ptr %2, align 8, !tbaa !28
  %4 = getelementptr inbounds nuw %struct.Abc_Obj_t_, ptr %3, i32 0, i32 3
  %5 = load i32, ptr %4, align 4
  %6 = lshr i32 %5, 10
  %7 = and i32 %6, 1
  ret i32 %7
}

; Function Attrs: inlinehint nounwind uwtable
define internal ptr @Abc_ObjFanin0(ptr noundef %0) #3 {
  %2 = alloca ptr, align 8
  store ptr %0, ptr %2, align 8, !tbaa !28
  %3 = load ptr, ptr %2, align 8, !tbaa !28
  %4 = getelementptr inbounds nuw %struct.Abc_Obj_t_, ptr %3, i32 0, i32 0
  %5 = load ptr, ptr %4, align 8, !tbaa !48
  %6 = getelementptr inbounds nuw %struct.Abc_Ntk_t_, ptr %5, i32 0, i32 5
  %7 = load ptr, ptr %6, align 8, !tbaa !45
  %8 = getelementptr inbounds nuw %struct.Vec_Ptr_t_, ptr %7, i32 0, i32 2
  %9 = load ptr, ptr %8, align 8, !tbaa !36
  %10 = load ptr, ptr %2, align 8, !tbaa !28
  %11 = getelementptr inbounds nuw %struct.Abc_Obj_t_, ptr %10, i32 0, i32 4
  %12 = getelementptr inbounds nuw %struct.Vec_Int_t_, ptr %11, i32 0, i32 2
  %13 = load ptr, ptr %12, align 8, !tbaa !50
  %14 = getelementptr inbounds i32, ptr %13, i64 0
  %15 = load i32, ptr %14, align 4, !tbaa !8
  %16 = sext i32 %15 to i64
  %17 = getelementptr inbounds ptr, ptr %9, i64 %16
  %18 = load ptr, ptr %17, align 8, !tbaa !37
  ret ptr %18
}

; Function Attrs: inlinehint nounwind uwtable
define internal ptr @Vec_PtrEntry(ptr noundef %0, i32 noundef %1) #3 {
  %3 = alloca ptr, align 8
  %4 = alloca i32, align 4
  store ptr %0, ptr %3, align 8, !tbaa !31
  store i32 %1, ptr %4, align 4, !tbaa !8
  %5 = load ptr, ptr %3, align 8, !tbaa !31
  %6 = getelementptr inbounds nuw %struct.Vec_Ptr_t_, ptr %5, i32 0, i32 2
  %7 = load ptr, ptr %6, align 8, !tbaa !36
  %8 = load i32, ptr %4, align 4, !tbaa !8
  %9 = sext i32 %8 to i64
  %10 = getelementptr inbounds ptr, ptr %7, i64 %9
  %11 = load ptr, ptr %10, align 8, !tbaa !37
  ret ptr %11
}

; Function Attrs: inlinehint nounwind uwtable
define internal i32 @Vec_PtrSize(ptr noundef %0) #3 {
  %2 = alloca ptr, align 8
  store ptr %0, ptr %2, align 8, !tbaa !31
  %3 = load ptr, ptr %2, align 8, !tbaa !31
  %4 = getelementptr inbounds nuw %struct.Vec_Ptr_t_, ptr %3, i32 0, i32 1
  %5 = load i32, ptr %4, align 4, !tbaa !34
  ret i32 %5
}

; Function Attrs: inlinehint nounwind uwtable
define internal ptr @Abc_NtkCreatePo(ptr noundef %0) #3 {
  %2 = alloca ptr, align 8
  store ptr %0, ptr %2, align 8, !tbaa !3
  %3 = load ptr, ptr %2, align 8, !tbaa !3
  %4 = call ptr @Abc_NtkCreateObj(ptr noundef %3, i32 noundef 3)
  ret ptr %4
}

; Function Attrs: inlinehint nounwind uwtable
define internal ptr @Abc_ObjChild0(ptr noundef %0) #3 {
  %2 = alloca ptr, align 8
  store ptr %0, ptr %2, align 8, !tbaa !28
  %3 = load ptr, ptr %2, align 8, !tbaa !28
  %4 = call ptr @Abc_ObjFanin0(ptr noundef %3)
  %5 = load ptr, ptr %2, align 8, !tbaa !28
  %6 = call i32 @Abc_ObjFaninC0(ptr noundef %5)
  %7 = call ptr @Abc_ObjNotCond(ptr noundef %4, i32 noundef %6)
  ret ptr %7
}

; Function Attrs: inlinehint nounwind uwtable
define internal ptr @Abc_NtkPo(ptr noundef %0, i32 noundef %1) #3 {
  %3 = alloca ptr, align 8
  %4 = alloca i32, align 4
  store ptr %0, ptr %3, align 8, !tbaa !3
  store i32 %1, ptr %4, align 4, !tbaa !8
  %5 = load ptr, ptr %3, align 8, !tbaa !3
  %6 = getelementptr inbounds nuw %struct.Abc_Ntk_t_, ptr %5, i32 0, i32 7
  %7 = load ptr, ptr %6, align 8, !tbaa !47
  %8 = load i32, ptr %4, align 4, !tbaa !8
  %9 = call ptr @Vec_PtrEntry(ptr noundef %7, i32 noundef %8)
  ret ptr %9
}

; Function Attrs: inlinehint nounwind uwtable
define internal ptr @Abc_ObjNot(ptr noundef %0) #3 {
  %2 = alloca ptr, align 8
  store ptr %0, ptr %2, align 8, !tbaa !28
  %3 = load ptr, ptr %2, align 8, !tbaa !28
  %4 = ptrtoint ptr %3 to i64
  %5 = xor i64 %4, 1
  %6 = inttoptr i64 %5 to ptr
  ret ptr %6
}

; Function Attrs: inlinehint nounwind uwtable
define internal i32 @Abc_NtkPoNum(ptr noundef %0) #3 {
  %2 = alloca ptr, align 8
  store ptr %0, ptr %2, align 8, !tbaa !3
  %3 = load ptr, ptr %2, align 8, !tbaa !3
  %4 = getelementptr inbounds nuw %struct.Abc_Ntk_t_, ptr %3, i32 0, i32 7
  %5 = load ptr, ptr %4, align 8, !tbaa !47
  %6 = call i32 @Vec_PtrSize(ptr noundef %5)
  ret i32 %6
}

; Function Attrs: nounwind uwtable
define i32 @Abc_NtkCombinePos(ptr noundef %0, i32 noundef %1, i32 noundef %2) #0 {
  %4 = alloca i32, align 4
  %5 = alloca ptr, align 8
  %6 = alloca i32, align 4
  %7 = alloca i32, align 4
  %8 = alloca ptr, align 8
  %9 = alloca ptr, align 8
  %10 = alloca i32, align 4
  %11 = alloca i32, align 4
  store ptr %0, ptr %5, align 8, !tbaa !3
  store i32 %1, ptr %6, align 4, !tbaa !8
  store i32 %2, ptr %7, align 4, !tbaa !8
  call void @llvm.lifetime.start.p0(i64 8, ptr %8) #9
  call void @llvm.lifetime.start.p0(i64 8, ptr %9) #9
  call void @llvm.lifetime.start.p0(i64 4, ptr %10) #9
  %12 = load ptr, ptr %5, align 8, !tbaa !3
  %13 = call i32 @Abc_NtkPoNum(ptr noundef %12)
  %14 = icmp eq i32 %13, 1
  br i1 %14, label %15, label %16

15:                                               ; preds = %3
  store i32 1, ptr %4, align 4
  store i32 1, ptr %11, align 4
  br label %101

16:                                               ; preds = %3
  %17 = load i32, ptr %6, align 4, !tbaa !8
  %18 = icmp ne i32 %17, 0
  br i1 %18, label %19, label %22

19:                                               ; preds = %16
  %20 = load ptr, ptr %5, align 8, !tbaa !3
  %21 = call ptr @Abc_AigConst1(ptr noundef %20)
  store ptr %21, ptr %9, align 8, !tbaa !28
  br label %26

22:                                               ; preds = %16
  %23 = load ptr, ptr %5, align 8, !tbaa !3
  %24 = call ptr @Abc_AigConst1(ptr noundef %23)
  %25 = call ptr @Abc_ObjNot(ptr noundef %24)
  store ptr %25, ptr %9, align 8, !tbaa !28
  br label %26

26:                                               ; preds = %22, %19
  store i32 0, ptr %10, align 4, !tbaa !8
  br label %27

27:                                               ; preds = %70, %26
  %28 = load i32, ptr %10, align 4, !tbaa !8
  %29 = load ptr, ptr %5, align 8, !tbaa !3
  %30 = call i32 @Abc_NtkPoNum(ptr noundef %29)
  %31 = icmp slt i32 %28, %30
  br i1 %31, label %32, label %36

32:                                               ; preds = %27
  %33 = load ptr, ptr %5, align 8, !tbaa !3
  %34 = load i32, ptr %10, align 4, !tbaa !8
  %35 = call ptr @Abc_NtkPo(ptr noundef %33, i32 noundef %34)
  store ptr %35, ptr %8, align 8, !tbaa !28
  br label %36

36:                                               ; preds = %32, %27
  %37 = phi i1 [ false, %27 ], [ true, %32 ]
  br i1 %37, label %38, label %73

38:                                               ; preds = %36
  %39 = load i32, ptr %6, align 4, !tbaa !8
  %40 = icmp ne i32 %39, 0
  br i1 %40, label %41, label %49

41:                                               ; preds = %38
  %42 = load ptr, ptr %5, align 8, !tbaa !3
  %43 = getelementptr inbounds nuw %struct.Abc_Ntk_t_, ptr %42, i32 0, i32 30
  %44 = load ptr, ptr %43, align 8, !tbaa !27
  %45 = load ptr, ptr %9, align 8, !tbaa !28
  %46 = load ptr, ptr %8, align 8, !tbaa !28
  %47 = call ptr @Abc_ObjChild0(ptr noundef %46)
  %48 = call ptr @Abc_AigAnd(ptr noundef %44, ptr noundef %45, ptr noundef %47)
  store ptr %48, ptr %9, align 8, !tbaa !28
  br label %69

49:                                               ; preds = %38
  %50 = load i32, ptr %7, align 4, !tbaa !8
  %51 = icmp ne i32 %50, 0
  br i1 %51, label %52, label %60

52:                                               ; preds = %49
  %53 = load ptr, ptr %5, align 8, !tbaa !3
  %54 = getelementptr inbounds nuw %struct.Abc_Ntk_t_, ptr %53, i32 0, i32 30
  %55 = load ptr, ptr %54, align 8, !tbaa !27
  %56 = load ptr, ptr %9, align 8, !tbaa !28
  %57 = load ptr, ptr %8, align 8, !tbaa !28
  %58 = call ptr @Abc_ObjChild0(ptr noundef %57)
  %59 = call ptr @Abc_AigXor(ptr noundef %55, ptr noundef %56, ptr noundef %58)
  store ptr %59, ptr %9, align 8, !tbaa !28
  br label %68

60:                                               ; preds = %49
  %61 = load ptr, ptr %5, align 8, !tbaa !3
  %62 = getelementptr inbounds nuw %struct.Abc_Ntk_t_, ptr %61, i32 0, i32 30
  %63 = load ptr, ptr %62, align 8, !tbaa !27
  %64 = load ptr, ptr %9, align 8, !tbaa !28
  %65 = load ptr, ptr %8, align 8, !tbaa !28
  %66 = call ptr @Abc_ObjChild0(ptr noundef %65)
  %67 = call ptr @Abc_AigOr(ptr noundef %63, ptr noundef %64, ptr noundef %66)
  store ptr %67, ptr %9, align 8, !tbaa !28
  br label %68

68:                                               ; preds = %60, %52
  br label %69

69:                                               ; preds = %68, %41
  br label %70

70:                                               ; preds = %69
  %71 = load i32, ptr %10, align 4, !tbaa !8
  %72 = add nsw i32 %71, 1
  store i32 %72, ptr %10, align 4, !tbaa !8
  br label %27, !llvm.loop !80

73:                                               ; preds = %36
  %74 = load ptr, ptr %5, align 8, !tbaa !3
  %75 = call i32 @Abc_NtkPoNum(ptr noundef %74)
  %76 = sub nsw i32 %75, 1
  store i32 %76, ptr %10, align 4, !tbaa !8
  br label %77

77:                                               ; preds = %84, %73
  %78 = load i32, ptr %10, align 4, !tbaa !8
  %79 = icmp sge i32 %78, 0
  br i1 %79, label %80, label %87

80:                                               ; preds = %77
  %81 = load ptr, ptr %5, align 8, !tbaa !3
  %82 = load i32, ptr %10, align 4, !tbaa !8
  %83 = call ptr @Abc_NtkPo(ptr noundef %81, i32 noundef %82)
  call void @Abc_NtkDeleteObj(ptr noundef %83)
  br label %84

84:                                               ; preds = %80
  %85 = load i32, ptr %10, align 4, !tbaa !8
  %86 = add nsw i32 %85, -1
  store i32 %86, ptr %10, align 4, !tbaa !8
  br label %77, !llvm.loop !81

87:                                               ; preds = %77
  %88 = load ptr, ptr %5, align 8, !tbaa !3
  %89 = call ptr @Abc_NtkCreatePo(ptr noundef %88)
  store ptr %89, ptr %8, align 8, !tbaa !28
  %90 = load ptr, ptr %8, align 8, !tbaa !28
  %91 = load ptr, ptr %9, align 8, !tbaa !28
  call void @Abc_ObjAddFanin(ptr noundef %90, ptr noundef %91)
  %92 = load ptr, ptr %8, align 8, !tbaa !28
  %93 = call ptr @Abc_ObjAssignName(ptr noundef %92, ptr noundef @.str.17, ptr noundef null)
  %94 = load ptr, ptr %5, align 8, !tbaa !3
  call void @Abc_NtkOrderCisCos(ptr noundef %94)
  %95 = load ptr, ptr %5, align 8, !tbaa !3
  %96 = call i32 @Abc_NtkCheck(ptr noundef %95)
  %97 = icmp ne i32 %96, 0
  br i1 %97, label %100, label %98

98:                                               ; preds = %87
  %99 = call i32 (ptr, ...) @printf(ptr noundef @.str.18)
  store i32 0, ptr %4, align 4
  store i32 1, ptr %11, align 4
  br label %101

100:                                              ; preds = %87
  store i32 1, ptr %4, align 4
  store i32 1, ptr %11, align 4
  br label %101

101:                                              ; preds = %100, %98, %15
  call void @llvm.lifetime.end.p0(i64 4, ptr %10) #9
  call void @llvm.lifetime.end.p0(i64 8, ptr %9) #9
  call void @llvm.lifetime.end.p0(i64 8, ptr %8) #9
  %102 = load i32, ptr %4, align 4
  ret i32 %102
}