; Function Attrs: nounwind uwtable
define range(i32 0, 2) i32 @Abc_NtkCombinePos(ptr noundef %0, i32 noundef %1, i32 noundef %2) local_unnamed_addr #0 {
  %4 = getelementptr i8, ptr %0, i64 48
  %.val37 = load ptr, ptr %4, align 8, !tbaa !43
  %5 = getelementptr i8, ptr %.val37, i64 4
  %.val37.val = load i32, ptr %5, align 4, !tbaa !26
  %6 = icmp eq i32 %.val37.val, 1
  br i1 %6, label %89, label %7

7:                                                ; preds = %3
  %.not = icmp eq i32 %1, 0
  %8 = tail call ptr @Abc_AigConst1(ptr noundef nonnull %0) #16
  br i1 %.not, label %9, label %.thread

9:                                                ; preds = %7
  %10 = ptrtoint ptr %8 to i64
  %11 = xor i64 %10, 1
  %12 = inttoptr i64 %11 to ptr
  %.val3654 = load ptr, ptr %4, align 8, !tbaa !43
  %13 = getelementptr i8, ptr %.val3654, i64 4
  %.val36.val55 = load i32, ptr %13, align 4, !tbaa !26
  %14 = icmp sgt i32 %.val36.val55, 0
  br i1 %14, label %.lr.ph.split.us, label %.critedge._crit_edge

.thread:                                          ; preds = %7
  %.val365482 = load ptr, ptr %4, align 8, !tbaa !43
  %15 = getelementptr i8, ptr %.val365482, i64 4
  %.val36.val5583 = load i32, ptr %15, align 4, !tbaa !26
  %16 = icmp sgt i32 %.val36.val5583, 0
  br i1 %16, label %.lr.ph.split.preheader, label %.critedge._crit_edge

.lr.ph.split.preheader:                           ; preds = %.thread
  %17 = getelementptr inbounds nuw i8, ptr %0, i64 256
  br label %.lr.ph.split

.lr.ph.split.us:                                  ; preds = %9
  %18 = getelementptr inbounds nuw i8, ptr %0, i64 256
  %.not35 = icmp eq i32 %2, 0
  br i1 %.not35, label %.lr.ph.split.us.split.us, label %.lr.ph.split.us.split

.lr.ph.split.us.split.us:                         ; preds = %.lr.ph.split.us, %.lr.ph.split.us.split.us
  %indvars.iv75 = phi i64 [ %indvars.iv.next76, %.lr.ph.split.us.split.us ], [ 0, %.lr.ph.split.us ]
  %.val3658.us.us = phi ptr [ %.val36.us.us, %.lr.ph.split.us.split.us ], [ %.val3654, %.lr.ph.split.us ]
  %.13256.us.us = phi ptr [ %35, %.lr.ph.split.us.split.us ], [ %12, %.lr.ph.split.us ]
  %19 = getelementptr i8, ptr %.val3658.us.us, i64 8
  %.val39.val.us.us = load ptr, ptr %19, align 8, !tbaa !28
  %20 = getelementptr inbounds nuw ptr, ptr %.val39.val.us.us, i64 %indvars.iv75
  %21 = load ptr, ptr %20, align 8, !tbaa !29
  %22 = load ptr, ptr %18, align 8, !tbaa !33
  %.val.i47.us.us = load ptr, ptr %21, align 8, !tbaa !34
  %23 = getelementptr i8, ptr %21, i64 32
  %.val2.i48.us.us = load ptr, ptr %23, align 8, !tbaa !35
  %24 = getelementptr i8, ptr %.val.i47.us.us, i64 32
  %.val.val.i49.us.us = load ptr, ptr %24, align 8, !tbaa !25
  %.val2.val.i50.us.us = load i32, ptr %.val2.i48.us.us, align 4, !tbaa !36
  %25 = getelementptr i8, ptr %.val.val.i49.us.us, i64 8
  %.val.val.val.i51.us.us = load ptr, ptr %25, align 8, !tbaa !28
  %26 = sext i32 %.val2.val.i50.us.us to i64
  %27 = getelementptr inbounds ptr, ptr %.val.val.val.i51.us.us, i64 %26
  %28 = load ptr, ptr %27, align 8, !tbaa !29
  %29 = getelementptr i8, ptr %21, i64 20
  %.val3.i52.us.us = load i32, ptr %29, align 4
  %30 = ptrtoint ptr %28 to i64
  %31 = lshr i32 %.val3.i52.us.us, 10
  %.lobit.i53.us.us = and i32 %31, 1
  %32 = zext nneg i32 %.lobit.i53.us.us to i64
  %33 = xor i64 %32, %30
  %34 = inttoptr i64 %33 to ptr
  %35 = tail call ptr @Abc_AigOr(ptr noundef %22, ptr noundef %.13256.us.us, ptr noundef %34) #16
  %indvars.iv.next76 = add nuw nsw i64 %indvars.iv75, 1
  %.val36.us.us = load ptr, ptr %4, align 8, !tbaa !43
  %36 = getelementptr i8, ptr %.val36.us.us, i64 4
  %.val36.val.us.us = load i32, ptr %36, align 4, !tbaa !26
  %37 = sext i32 %.val36.val.us.us to i64
  %38 = icmp slt i64 %indvars.iv.next76, %37
  br i1 %38, label %.lr.ph.split.us.split.us, label %.critedge.preheader, !llvm.loop !82

.lr.ph.split.us.split:                            ; preds = %.lr.ph.split.us, %.lr.ph.split.us.split
  %indvars.iv72 = phi i64 [ %indvars.iv.next73, %.lr.ph.split.us.split ], [ 0, %.lr.ph.split.us ]
  %.val3658.us = phi ptr [ %.val36.us, %.lr.ph.split.us.split ], [ %.val3654, %.lr.ph.split.us ]
  %.13256.us = phi ptr [ %55, %.lr.ph.split.us.split ], [ %12, %.lr.ph.split.us ]
  %39 = getelementptr i8, ptr %.val3658.us, i64 8
  %.val39.val.us = load ptr, ptr %39, align 8, !tbaa !28
  %40 = getelementptr inbounds nuw ptr, ptr %.val39.val.us, i64 %indvars.iv72
  %41 = load ptr, ptr %40, align 8, !tbaa !29
  %42 = load ptr, ptr %18, align 8, !tbaa !33
  %.val.i40.us = load ptr, ptr %41, align 8, !tbaa !34
  %43 = getelementptr i8, ptr %41, i64 32
  %.val2.i41.us = load ptr, ptr %43, align 8, !tbaa !35
  %44 = getelementptr i8, ptr %.val.i40.us, i64 32
  %.val.val.i42.us = load ptr, ptr %44, align 8, !tbaa !25
  %.val2.val.i43.us = load i32, ptr %.val2.i41.us, align 4, !tbaa !36
  %45 = getelementptr i8, ptr %.val.val.i42.us, i64 8
  %.val.val.val.i44.us = load ptr, ptr %45, align 8, !tbaa !28
  %46 = sext i32 %.val2.val.i43.us to i64
  %47 = getelementptr inbounds ptr, ptr %.val.val.val.i44.us, i64 %46
  %48 = load ptr, ptr %47, align 8, !tbaa !29
  %49 = getelementptr i8, ptr %41, i64 20
  %.val3.i45.us = load i32, ptr %49, align 4
  %50 = ptrtoint ptr %48 to i64
  %51 = lshr i32 %.val3.i45.us, 10
  %.lobit.i46.us = and i32 %51, 1
  %52 = zext nneg i32 %.lobit.i46.us to i64
  %53 = xor i64 %52, %50
  %54 = inttoptr i64 %53 to ptr
  %55 = tail call ptr @Abc_AigXor(ptr noundef %42, ptr noundef %.13256.us, ptr noundef %54) #16
  %indvars.iv.next73 = add nuw nsw i64 %indvars.iv72, 1
  %.val36.us = load ptr, ptr %4, align 8, !tbaa !43
  %56 = getelementptr i8, ptr %.val36.us, i64 4
  %.val36.val.us = load i32, ptr %56, align 4, !tbaa !26
  %57 = sext i32 %.val36.val.us to i64
  %58 = icmp slt i64 %indvars.iv.next73, %57
  br i1 %58, label %.lr.ph.split.us.split, label %.critedge.preheader, !llvm.loop !82

.critedge.preheader:                              ; preds = %.lr.ph.split, %.lr.ph.split.us.split, %.lr.ph.split.us.split.us
  %.132.lcssa = phi ptr [ %35, %.lr.ph.split.us.split.us ], [ %55, %.lr.ph.split.us.split ], [ %77, %.lr.ph.split ]
  %.val36.val.lcssa = phi i32 [ %.val36.val.us.us, %.lr.ph.split.us.split.us ], [ %.val36.val.us, %.lr.ph.split.us.split ], [ %.val36.val, %.lr.ph.split ]
  %59 = icmp sgt i32 %.val36.val.lcssa, 0
  br i1 %59, label %.critedge.preheader65, label %.critedge._crit_edge

.critedge.preheader65:                            ; preds = %.critedge.preheader
  %60 = zext nneg i32 %.val36.val.lcssa to i64
  br label %.critedge

.lr.ph.split:                                     ; preds = %.lr.ph.split.preheader, %.lr.ph.split
  %indvars.iv = phi i64 [ 0, %.lr.ph.split.preheader ], [ %indvars.iv.next, %.lr.ph.split ]
  %.val3658 = phi ptr [ %.val365482, %.lr.ph.split.preheader ], [ %.val36, %.lr.ph.split ]
  %.13256 = phi ptr [ %8, %.lr.ph.split.preheader ], [ %77, %.lr.ph.split ]
  %61 = getelementptr i8, ptr %.val3658, i64 8
  %.val39.val = load ptr, ptr %61, align 8, !tbaa !28
  %62 = getelementptr inbounds nuw ptr, ptr %.val39.val, i64 %indvars.iv
  %63 = load ptr, ptr %62, align 8, !tbaa !29
  %64 = load ptr, ptr %17, align 8, !tbaa !33
  %.val.i = load ptr, ptr %63, align 8, !tbaa !34
  %65 = getelementptr i8, ptr %63, i64 32
  %.val2.i = load ptr, ptr %65, align 8, !tbaa !35
  %66 = getelementptr i8, ptr %.val.i, i64 32
  %.val.val.i = load ptr, ptr %66, align 8, !tbaa !25
  %.val2.val.i = load i32, ptr %.val2.i, align 4, !tbaa !36
  %67 = getelementptr i8, ptr %.val.val.i, i64 8
  %.val.val.val.i = load ptr, ptr %67, align 8, !tbaa !28
  %68 = sext i32 %.val2.val.i to i64
  %69 = getelementptr inbounds ptr, ptr %.val.val.val.i, i64 %68
  %70 = load ptr, ptr %69, align 8, !tbaa !29
  %71 = getelementptr i8, ptr %63, i64 20
  %.val3.i = load i32, ptr %71, align 4
  %72 = ptrtoint ptr %70 to i64
  %73 = lshr i32 %.val3.i, 10
  %.lobit.i = and i32 %73, 1
  %74 = zext nneg i32 %.lobit.i to i64
  %75 = xor i64 %74, %72
  %76 = inttoptr i64 %75 to ptr
  %77 = tail call ptr @Abc_AigAnd(ptr noundef %64, ptr noundef %.13256, ptr noundef %76) #16
  %indvars.iv.next = add nuw nsw i64 %indvars.iv, 1
  %.val36 = load ptr, ptr %4, align 8, !tbaa !43
  %78 = getelementptr i8, ptr %.val36, i64 4
  %.val36.val = load i32, ptr %78, align 4, !tbaa !26
  %79 = sext i32 %.val36.val to i64
  %80 = icmp slt i64 %indvars.iv.next, %79
  br i1 %80, label %.lr.ph.split, label %.critedge.preheader, !llvm.loop !82

.critedge:                                        ; preds = %.critedge.preheader65, %.critedge
  %indvars.iv78 = phi i64 [ %60, %.critedge.preheader65 ], [ %indvars.iv.next79, %.critedge ]
  %indvars.iv.next79 = add nsw i64 %indvars.iv78, -1
  %.val38 = load ptr, ptr %4, align 8, !tbaa !43
  %81 = getelementptr i8, ptr %.val38, i64 8
  %.val38.val = load ptr, ptr %81, align 8, !tbaa !28
  %82 = getelementptr inbounds nuw ptr, ptr %.val38.val, i64 %indvars.iv.next79
  %83 = load ptr, ptr %82, align 8, !tbaa !29
  tail call void @Abc_NtkDeleteObj(ptr noundef %83) #16
  %84 = icmp samesign ugt i64 %indvars.iv78, 1
  br i1 %84, label %.critedge, label %.critedge._crit_edge, !llvm.loop !83

.critedge._crit_edge:                             ; preds = %.critedge, %.thread, %9, %.critedge.preheader
  %.132.lcssa92 = phi ptr [ %.132.lcssa, %.critedge.preheader ], [ %8, %.thread ], [ %12, %9 ], [ %.132.lcssa, %.critedge ]
  %85 = tail call ptr @Abc_NtkCreateObj(ptr noundef nonnull %0, i32 noundef 3) #16
  tail call void @Abc_ObjAddFanin(ptr noundef %85, ptr noundef %.132.lcssa92) #16
  %86 = tail call ptr @Abc_ObjAssignName(ptr noundef %85, ptr noundef nonnull @.str.17, ptr noundef null) #16
  tail call void @Abc_NtkOrderCisCos(ptr noundef nonnull %0) #16
  %87 = tail call i32 @Abc_NtkCheck(ptr noundef nonnull %0) #16
  %.not34 = icmp eq i32 %87, 0
  br i1 %.not34, label %88, label %89

88:                                               ; preds = %.critedge._crit_edge
  %puts = tail call i32 @puts(ptr nonnull dereferenceable(1) @str.14)
  br label %89

89:                                               ; preds = %.critedge._crit_edge, %3, %88
  %.033 = phi i32 [ 0, %88 ], [ 1, %3 ], [ 1, %.critedge._crit_edge ]
  ret i32 %.033
}